target datalayout = "e-m:e-p270:32:32-p271:32:32-p272:64:64-i64:64-i128:128-f80:128-n8:16:32:64-S128"
target triple = "x86_64-pc-linux-gnu"

%"class.cv::Mat" = type { i32, i32, i32, i32, ptr, ptr, ptr, ptr, ptr, ptr, %"struct.cv::MatSize", %"struct.cv::MatStep" }
%"struct.cv::MatSize" = type { ptr }
%"struct.cv::MatStep" = type { ptr, [2 x i64] }

; Function Attrs: inlinehint mustprogress nounwind uwtable
define linkonce_odr hidden noundef ptr @_ZN2cv3Mat3ptrIhEEPT_ii(ptr noundef nonnull align 8 dereferenceable(96) %0, i32 noundef %1, i32 noundef %2) #14 comdat align 2 {
  %4 = alloca ptr, align 8
  %5 = alloca i32, align 4
  %6 = alloca i32, align 4
  store ptr %0, ptr %4, align 8, !tbaa !159
  store i32 %1, ptr %5, align 4, !tbaa !48
  store i32 %2, ptr %6, align 4, !tbaa !48
  %7 = load ptr, ptr %4, align 8
  %8 = getelementptr inbounds nuw %"class.cv::Mat", ptr %7, i32 0, i32 4
  %9 = load ptr, ptr %8, align 8, !tbaa !161
  %10 = load i32, ptr %5, align 4, !tbaa !48
  %11 = sext i32 %10 to i64
  %12 = getelementptr inbounds nuw %"class.cv::Mat", ptr %7, i32 0, i32 11
  %13 = getelementptr inbounds nuw %"struct.cv::MatStep", ptr %12, i32 0, i32 0
  %14 = load ptr, ptr %13, align 8, !tbaa !162
  %15 = getelementptr inbounds i64, ptr %14, i64 0
  %16 = load i64, ptr %15, align 8, !tbaa !54
  %17 = mul i64 %11, %16
  %18 = getelementptr inbounds nuw i8, ptr %9, i64 %17
  %19 = load i32, ptr %6, align 4, !tbaa !48
  %20 = sext i32 %19 to i64
  %21 = getelementptr inbounds nuw %"class.cv::Mat", ptr %7, i32 0, i32 11
  %22 = getelementptr inbounds nuw %"struct.cv::MatStep", ptr %21, i32 0, i32 0
  %23 = load ptr, ptr %22, align 8, !tbaa !162
  %24 = getelementptr inbounds i64, ptr %23, i64 1
  %25 = load i64, ptr %24, align 8, !tbaa !54
  %26 = mul i64 %20, %25
  %27 = getelementptr inbounds nuw i8, ptr %18, i64 %26
  ret ptr %27
}

; Function Attrs: mustprogress uwtable
define void @_ZN2cv8freetype13FreeType2Impl19putPixel_8UC4_blendERNS_3MatEiiPKhh(ptr noundef nonnull align 8 dereferenceable(88) %0, ptr noundef nonnull align 8 dereferenceable(96) %1, i32 noundef %2, i32 noundef %3, ptr noundef %4, i8 noundef zeroext %5) #4 align 2 {
  %7 = alloca ptr, align 8
  %8 = alloca ptr, align 8
  %9 = alloca i32, align 4
  %10 = alloca i32, align 4
  %11 = alloca ptr, align 8
  %12 = alloca i8, align 1
  %13 = alloca i8, align 1
  %14 = alloca i32, align 4
  %15 = alloca i32, align 4
  %16 = alloca i32, align 4
  %17 = alloca i32, align 4
  %18 = alloca ptr, align 8
  %19 = alloca i32, align 4
  %20 = alloca i32, align 4
  %21 = alloca i32, align 4
  %22 = alloca i32, align 4
  store ptr %0, ptr %7, align 8, !tbaa !3
  store ptr %1, ptr %8, align 8, !tbaa !159
  store i32 %2, ptr %9, align 4, !tbaa !48
  store i32 %3, ptr %10, align 4, !tbaa !48
  store ptr %4, ptr %11, align 8, !tbaa !72
  store i8 %5, ptr %12, align 1, !tbaa !101
  call void @llvm.lifetime.start.p0(i64 1, ptr %13) #3
  %23 = load i8, ptr %12, align 1, !tbaa !101
  store i8 %23, ptr %13, align 1, !tbaa !101
  call void @llvm.lifetime.start.p0(i64 4, ptr %14) #3
  %24 = load ptr, ptr %11, align 8, !tbaa !72
  %25 = getelementptr inbounds i8, ptr %24, i64 0
  %26 = load i8, ptr %25, align 1, !tbaa !101
  %27 = zext i8 %26 to i32
  store i32 %27, ptr %14, align 4, !tbaa !48
  call void @llvm.lifetime.start.p0(i64 4, ptr %15) #3
  %28 = load ptr, ptr %11, align 8, !tbaa !72
  %29 = getelementptr inbounds i8, ptr %28, i64 1
  %30 = load i8, ptr %29, align 1, !tbaa !101
  %31 = zext i8 %30 to i32
  store i32 %31, ptr %15, align 4, !tbaa !48
  call void @llvm.lifetime.start.p0(i64 4, ptr %16) #3
  %32 = load ptr, ptr %11, align 8, !tbaa !72
  %33 = getelementptr inbounds i8, ptr %32, i64 2
  %34 = load i8, ptr %33, align 1, !tbaa !101
  %35 = zext i8 %34 to i32
  store i32 %35, ptr %16, align 4, !tbaa !48
  call void @llvm.lifetime.start.p0(i64 4, ptr %17) #3
  %36 = load ptr, ptr %11, align 8, !tbaa !72
  %37 = getelementptr inbounds i8, ptr %36, i64 3
  %38 = load i8, ptr %37, align 1, !tbaa !101
  %39 = zext i8 %38 to i32
  store i32 %39, ptr %17, align 4, !tbaa !48
  call void @llvm.lifetime.start.p0(i64 8, ptr %18) #3
  %40 = load ptr, ptr %8, align 8, !tbaa !159
  %41 = load i32, ptr %9, align 4, !tbaa !48
  %42 = load i32, ptr %10, align 4, !tbaa !48
  %43 = call noundef ptr @_ZN2cv3Mat3ptrIhEEPT_ii(ptr noundef nonnull align 8 dereferenceable(96) %40, i32 noundef %41, i32 noundef %42)
  store ptr %43, ptr %18, align 8, !tbaa !72
  call void @llvm.lifetime.start.p0(i64 4, ptr %19) #3
  %44 = load ptr, ptr %18, align 8, !tbaa !72
  %45 = getelementptr inbounds i8, ptr %44, i64 0
  %46 = load i8, ptr %45, align 1, !tbaa !101
  %47 = zext i8 %46 to i32
  store i32 %47, ptr %19, align 4, !tbaa !48
  %48 = load i32, ptr %14, align 4, !tbaa !48
  %49 = load i32, ptr %19, align 4, !tbaa !48
  %50 = sub nsw i32 %48, %49
  %51 = load i8, ptr %13, align 1, !tbaa !101
  %52 = zext i8 %51 to i32
  %53 = mul nsw i32 %50, %52
  %54 = add nsw i32 %53, 127
  %55 = ashr i32 %54, 8
  %56 = load i32, ptr %19, align 4, !tbaa !48
  %57 = add nsw i32 %56, %55
  store i32 %57, ptr %19, align 4, !tbaa !48
  %58 = load i32, ptr %14, align 4, !tbaa !48
  %59 = load i32, ptr %19, align 4, !tbaa !48
  %60 = sub nsw i32 %58, %59
  %61 = load i8, ptr %13, align 1, !tbaa !101
  %62 = zext i8 %61 to i32
  %63 = mul nsw i32 %60, %62
  %64 = add nsw i32 %63, 127
  %65 = ashr i32 %64, 8
  %66 = load i32, ptr %19, align 4, !tbaa !48
  %67 = add nsw i32 %66, %65
  store i32 %67, ptr %19, align 4, !tbaa !48
  call void @llvm.lifetime.start.p0(i64 4, ptr %20) #3
  %68 = load ptr, ptr %18, align 8, !tbaa !72
  %69 = getelementptr inbounds i8, ptr %68, i64 1
  %70 = load i8, ptr %69, align 1, !tbaa !101
  %71 = zext i8 %70 to i32
  store i32 %71, ptr %20, align 4, !tbaa !48
  %72 = load i32, ptr %15, align 4, !tbaa !48
  %73 = load i32, ptr %20, align 4, !tbaa !48
  %74 = sub nsw i32 %72, %73
  %75 = load i8, ptr %13, align 1, !tbaa !101
  %76 = zext i8 %75 to i32
  %77 = mul nsw i32 %74, %76
  %78 = add nsw i32 %77, 127
  %79 = ashr i32 %78, 8
  %80 = load i32, ptr %20, align 4, !tbaa !48
  %81 = add nsw i32 %80, %79
  store i32 %81, ptr %20, align 4, !tbaa !48
  %82 = load i32, ptr %15, align 4, !tbaa !48
  %83 = load i32, ptr %20, align 4, !tbaa !48
  %84 = sub nsw i32 %82, %83
  %85 = load i8, ptr %13, align 1, !tbaa !101
  %86 = zext i8 %85 to i32
  %87 = mul nsw i32 %84, %86
  %88 = add nsw i32 %87, 127
  %89 = ashr i32 %88, 8
  %90 = load i32, ptr %20, align 4, !tbaa !48
  %91 = add nsw i32 %90, %89
  store i32 %91, ptr %20, align 4, !tbaa !48
  call void @llvm.lifetime.start.p0(i64 4, ptr %21) #3
  %92 = load ptr, ptr %18, align 8, !tbaa !72
  %93 = getelementptr inbounds i8, ptr %92, i64 2
  %94 = load i8, ptr %93, align 1, !tbaa !101
  %95 = zext i8 %94 to i32
  store i32 %95, ptr %21, align 4, !tbaa !48
  %96 = load i32, ptr %16, align 4, !tbaa !48
  %97 = load i32, ptr %21, align 4, !tbaa !48
  %98 = sub nsw i32 %96, %97
  %99 = load i8, ptr %13, align 1, !tbaa !101
  %100 = zext i8 %99 to i32
  %101 = mul nsw i32 %98, %100
  %102 = add nsw i32 %101, 127
  %103 = ashr i32 %102, 8
  %104 = load i32, ptr %21, align 4, !tbaa !48
  %105 = add nsw i32 %104, %103
  store i32 %105, ptr %21, align 4, !tbaa !48
  %106 = load i32, ptr %16, align 4, !tbaa !48
  %107 = load i32, ptr %21, align 4, !tbaa !48
  %108 = sub nsw i32 %106, %107
  %109 = load i8, ptr %13, align 1, !tbaa !101
  %110 = zext i8 %109 to i32
  %111 = mul nsw i32 %108, %110
  %112 = add nsw i32 %111, 127
  %113 = ashr i32 %112, 8
  %114 = load i32, ptr %21, align 4, !tbaa !48
  %115 = add nsw i32 %114, %113
  store i32 %115, ptr %21, align 4, !tbaa !48
  call void @llvm.lifetime.start.p0(i64 4, ptr %22) #3
  %116 = load ptr, ptr %18, align 8, !tbaa !72
  %117 = getelementptr inbounds i8, ptr %116, i64 3
  %118 = load i8, ptr %117, align 1, !tbaa !101
  %119 = zext i8 %118 to i32
  store i32 %119, ptr %22, align 4, !tbaa !48
  %120 = load i32, ptr %17, align 4, !tbaa !48
  %121 = load i32, ptr %22, align 4, !tbaa !48
  %122 = sub nsw i32 %120, %121
  %123 = load i8, ptr %13, align 1, !tbaa !101
  %124 = zext i8 %123 to i32
  %125 = mul nsw i32 %122, %124
  %126 = add nsw i32 %125, 127
  %127 = ashr i32 %126, 8
  %128 = load i32, ptr %22, align 4, !tbaa !48
  %129 = add nsw i32 %128, %127
  store i32 %129, ptr %22, align 4, !tbaa !48
  %130 = load i32, ptr %17, align 4, !tbaa !48
  %131 = load i32, ptr %22, align 4, !tbaa !48
  %132 = sub nsw i32 %130, %131
  %133 = load i8, ptr %13, align 1, !tbaa !101
  %134 = zext i8 %133 to i32
  %135 = mul nsw i32 %132, %134
  %136 = add nsw i32 %135, 127
  %137 = ashr i32 %136, 8
  %138 = load i32, ptr %22, align 4, !tbaa !48
  %139 = add nsw i32 %138, %137
  store i32 %139, ptr %22, align 4, !tbaa !48
  %140 = load i32, ptr %19, align 4, !tbaa !48
  %141 = trunc i32 %140 to i8
  %142 = load ptr, ptr %18, align 8, !tbaa !72
  %143 = getelementptr inbounds i8, ptr %142, i64 0
  store i8 %141, ptr %143, align 1, !tbaa !101
  %144 = load i32, ptr %20, align 4, !tbaa !48
  %145 = trunc i32 %144 to i8
  %146 = load ptr, ptr %18, align 8, !tbaa !72
  %147 = getelementptr inbounds i8, ptr %146, i64 1
  store i8 %145, ptr %147, align 1, !tbaa !101
  %148 = load i32, ptr %21, align 4, !tbaa !48
  %149 = trunc i32 %148 to i8
  %150 = load ptr, ptr %18, align 8, !tbaa !72
  %151 = getelementptr inbounds i8, ptr %150, i64 2
  store i8 %149, ptr %151, align 1, !tbaa !101
  %152 = load i32, ptr %22, align 4, !tbaa !48
  %153 = trunc i32 %152 to i8
  %154 = load ptr, ptr %18, align 8, !tbaa !72
  %155 = getelementptr inbounds i8, ptr %154, i64 3
  store i8 %153, ptr %155, align 1, !tbaa !101
  call void @llvm.lifetime.end.p0(i64 4, ptr %22) #3
  call void @llvm.lifetime.end.p0(i64 4, ptr %21) #3
  call void @llvm.lifetime.end.p0(i64 4, ptr %20) #3
  call void @llvm.lifetime.end.p0(i64 4, ptr %19) #3
  call void @llvm.lifetime.end.p0(i64 8, ptr %18) #3
  call void @llvm.lifetime.end.p0(i64 4, ptr %17) #3
  call void @llvm.lifetime.end.p0(i64 4, ptr %16) #3
  call void @llvm.lifetime.end.p0(i64 4, ptr %15) #3
  call void @llvm.lifetime.end.p0(i64 4, ptr %14) #3
  call void @llvm.lifetime.end.p0(i64 1, ptr %13) #3
  ret void
}