; Function Attrs: mustprogress nofree norecurse nosync nounwind willreturn memory(readwrite, inaccessiblemem: none) uwtable
define void @_ZN2cv8freetype13FreeType2Impl19putPixel_8UC4_blendERNS_3MatEiiPKhh(ptr nonnull readnone align 8 captures(none) %0, ptr noundef nonnull readonly align 8 captures(none) dereferenceable(96) %1, i32 noundef %2, i32 noundef %3, ptr noundef readonly captures(none) %4, i8 noundef zeroext %5) #13 align 2 {
  %7 = load i8, ptr %4, align 1, !tbaa !107
  %8 = zext i8 %7 to i32
  %9 = getelementptr inbounds nuw i8, ptr %4, i64 1
  %10 = load i8, ptr %9, align 1, !tbaa !107
  %11 = zext i8 %10 to i32
  %12 = getelementptr inbounds nuw i8, ptr %4, i64 2
  %13 = load i8, ptr %12, align 1, !tbaa !107
  %14 = zext i8 %13 to i32
  %15 = getelementptr inbounds nuw i8, ptr %4, i64 3
  %16 = load i8, ptr %15, align 1, !tbaa !107
  %17 = zext i8 %16 to i32
  %18 = getelementptr inbounds nuw i8, ptr %1, i64 16
  %19 = load ptr, ptr %18, align 8, !tbaa !168
  %20 = sext i32 %2 to i64
  %21 = getelementptr inbounds nuw i8, ptr %1, i64 72
  %22 = load ptr, ptr %21, align 8, !tbaa !169
  %23 = load i64, ptr %22, align 8, !tbaa !62
  %24 = mul i64 %23, %20
  %25 = getelementptr inbounds nuw i8, ptr %19, i64 %24
  %26 = sext i32 %3 to i64
  %27 = getelementptr inbounds nuw i8, ptr %22, i64 8
  %28 = load i64, ptr %27, align 8, !tbaa !62
  %29 = mul i64 %28, %26
  %30 = getelementptr inbounds nuw i8, ptr %25, i64 %29
  %31 = load i8, ptr %30, align 1, !tbaa !107
  %32 = zext i8 %31 to i32
  %33 = sub nsw i32 %8, %32
  %34 = zext i8 %5 to i32
  %35 = mul nsw i32 %33, %34
  %36 = add nsw i32 %35, 127
  %37 = ashr i32 %36, 8
  %38 = add nsw i32 %37, %32
  %39 = sub nsw i32 %8, %38
  %40 = mul nsw i32 %39, %34
  %41 = add nsw i32 %40, 127
  %42 = lshr i32 %41, 8
  %43 = add nsw i32 %42, %38
  %44 = getelementptr inbounds nuw i8, ptr %30, i64 1
  %45 = load i8, ptr %44, align 1, !tbaa !107
  %46 = zext i8 %45 to i32
  %47 = sub nsw i32 %11, %46
  %48 = mul nsw i32 %47, %34
  %49 = add nsw i32 %48, 127
  %50 = ashr i32 %49, 8
  %51 = add nsw i32 %50, %46
  %52 = sub nsw i32 %11, %51
  %53 = mul nsw i32 %52, %34
  %54 = add nsw i32 %53, 127
  %55 = lshr i32 %54, 8
  %56 = add nsw i32 %55, %51
  %57 = getelementptr inbounds nuw i8, ptr %30, i64 2
  %58 = load i8, ptr %57, align 1, !tbaa !107
  %59 = zext i8 %58 to i32
  %60 = sub nsw i32 %14, %59
  %61 = mul nsw i32 %60, %34
  %62 = add nsw i32 %61, 127
  %63 = ashr i32 %62, 8
  %64 = add nsw i32 %63, %59
  %65 = sub nsw i32 %14, %64
  %66 = mul nsw i32 %65, %34
  %67 = add nsw i32 %66, 127
  %68 = lshr i32 %67, 8
  %69 = add nsw i32 %68, %64
  %70 = getelementptr inbounds nuw i8, ptr %30, i64 3
  %71 = load i8, ptr %70, align 1, !tbaa !107
  %72 = zext i8 %71 to i32
  %73 = sub nsw i32 %17, %72
  %74 = mul nsw i32 %73, %34
  %75 = add nsw i32 %74, 127
  %76 = ashr i32 %75, 8
  %77 = add nsw i32 %76, %72
  %78 = sub nsw i32 %17, %77
  %79 = mul nsw i32 %78, %34
  %80 = add nsw i32 %79, 127
  %81 = lshr i32 %80, 8
  %82 = add nsw i32 %81, %77
  %83 = trunc i32 %43 to i8
  store i8 %83, ptr %30, align 1, !tbaa !107
  %84 = trunc i32 %56 to i8
  store i8 %84, ptr %44, align 1, !tbaa !107
  %85 = trunc i32 %69 to i8
  store i8 %85, ptr %57, align 1, !tbaa !107
  %86 = trunc i32 %82 to i8
  store i8 %86, ptr %70, align 1, !tbaa !107
  ret void
}